target datalayout = "e-m:e-p270:32:32-p271:32:32-p272:64:64-i64:64-i128:128-f80:128-n8:16:32:64-S128"
target triple = "x86_64-pc-linux-gnu"

%struct._zend_refcounted_h = type { i32, %union.anon.5 }
%union.anon.5 = type { i32 }
%struct._zend_string = type { %struct._zend_refcounted_h, i64, i64, [1 x i8] }
%struct.zend_type = type { ptr, i32 }
%struct.zend_type_list = type { i32, [1 x %struct.zend_type] }

; Function Attrs: alwaysinline nounwind uwtable
define internal i32 @zend_gc_delref(ptr noundef %0) #4 {
  %2 = alloca ptr, align 8
  store ptr %0, ptr %2, align 8, !tbaa !216
  %3 = load ptr, ptr %2, align 8, !tbaa !216
  %4 = getelementptr inbounds nuw %struct._zend_refcounted_h, ptr %3, i32 0, i32 0
  %5 = load i32, ptr %4, align 4, !tbaa !218
  %6 = icmp ugt i32 %5, 0
  call void @llvm.assume(i1 %6)
  br label %7

7:                                                ; preds = %1
  br label %8

8:                                                ; preds = %7
  %9 = load ptr, ptr %2, align 8, !tbaa !216
  %10 = getelementptr inbounds nuw %struct._zend_refcounted_h, ptr %9, i32 0, i32 0
  %11 = load i32, ptr %10, align 4, !tbaa !218
  %12 = add i32 %11, -1
  store i32 %12, ptr %10, align 4, !tbaa !218
  ret i32 %12
}

; Function Attrs: alwaysinline nounwind uwtable
define internal i32 @zval_gc_flags(i32 noundef %0) #4 {
  %2 = alloca i32, align 4
  store i32 %0, ptr %2, align 4, !tbaa !10
  %3 = load i32, ptr %2, align 4, !tbaa !10
  %4 = lshr i32 %3, 0
  %5 = and i32 %4, 1008
  ret i32 %5
}

; Function Attrs: alwaysinline nounwind uwtable
define internal void @zend_string_release(ptr noundef %0) #4 {
  %2 = alloca ptr, align 8
  store ptr %0, ptr %2, align 8, !tbaa !56
  %3 = load ptr, ptr %2, align 8, !tbaa !56
  %4 = getelementptr inbounds nuw %struct._zend_string, ptr %3, i32 0, i32 0
  %5 = getelementptr inbounds nuw %struct._zend_refcounted_h, ptr %4, i32 0, i32 1
  %6 = load i32, ptr %5, align 4, !tbaa !9
  %7 = call i32 @zval_gc_flags(i32 noundef %6)
  %8 = and i32 %7, 64
  %9 = icmp ne i32 %8, 0
  br i1 %9, label %29, label %10

10:                                               ; preds = %1
  %11 = load ptr, ptr %2, align 8, !tbaa !56
  %12 = getelementptr inbounds nuw %struct._zend_string, ptr %11, i32 0, i32 0
  %13 = call i32 @zend_gc_delref(ptr noundef %12)
  %14 = icmp eq i32 %13, 0
  br i1 %14, label %15, label %28

15:                                               ; preds = %10
  %16 = load ptr, ptr %2, align 8, !tbaa !56
  %17 = getelementptr inbounds nuw %struct._zend_string, ptr %16, i32 0, i32 0
  %18 = getelementptr inbounds nuw %struct._zend_refcounted_h, ptr %17, i32 0, i32 1
  %19 = load i32, ptr %18, align 4, !tbaa !9
  %20 = call i32 @zval_gc_flags(i32 noundef %19)
  %21 = and i32 %20, 128
  %22 = icmp ne i32 %21, 0
  br i1 %22, label %23, label %25

23:                                               ; preds = %15
  %24 = load ptr, ptr %2, align 8, !tbaa !56
  call void @free(ptr noundef %24) #14
  br label %27

25:                                               ; preds = %15
  %26 = load ptr, ptr %2, align 8, !tbaa !56
  call void @_efree(ptr noundef %26)
  br label %27

27:                                               ; preds = %25, %23
  br label %28

28:                                               ; preds = %27, %10
  br label %29

29:                                               ; preds = %28, %1
  ret void
}

; Function Attrs: nounwind uwtable
define dso_local void @zend_type_release(ptr %0, i32 %1, i1 noundef zeroext %2) #0 {
  %4 = alloca %struct.zend_type, align 8
  %5 = alloca i8, align 1
  %6 = alloca ptr, align 8
  %7 = alloca ptr, align 8
  %8 = alloca ptr, align 8
  %9 = getelementptr inbounds nuw { ptr, i32 }, ptr %4, i32 0, i32 0
  store ptr %0, ptr %9, align 8
  %10 = getelementptr inbounds nuw { ptr, i32 }, ptr %4, i32 0, i32 1
  store i32 %1, ptr %10, align 8
  %11 = zext i1 %2 to i8
  store i8 %11, ptr %5, align 1, !tbaa !64
  %12 = getelementptr inbounds nuw %struct.zend_type, ptr %4, i32 0, i32 1
  %13 = load i32, ptr %12, align 8, !tbaa !66
  %14 = and i32 %13, 4194304
  %15 = icmp ne i32 %14, 0
  br i1 %15, label %16, label %63

16:                                               ; preds = %3
  call void @llvm.lifetime.start.p0(i64 8, ptr %6) #14
  br label %17

17:                                               ; preds = %16
  call void @llvm.lifetime.start.p0(i64 8, ptr %7) #14
  %18 = getelementptr inbounds nuw %struct.zend_type, ptr %4, i32 0, i32 0
  %19 = load ptr, ptr %18, align 8, !tbaa !68
  %20 = getelementptr inbounds nuw %struct.zend_type_list, ptr %19, i32 0, i32 1
  %21 = getelementptr inbounds [1 x %struct.zend_type], ptr %20, i64 0, i64 0
  store ptr %21, ptr %7, align 8, !tbaa !69
  call void @llvm.lifetime.start.p0(i64 8, ptr %8) #14
  %22 = load ptr, ptr %7, align 8, !tbaa !69
  %23 = getelementptr inbounds nuw %struct.zend_type, ptr %4, i32 0, i32 0
  %24 = load ptr, ptr %23, align 8, !tbaa !68
  %25 = getelementptr inbounds nuw %struct.zend_type_list, ptr %24, i32 0, i32 0
  %26 = load i32, ptr %25, align 8, !tbaa !70
  %27 = zext i32 %26 to i64
  %28 = getelementptr inbounds nuw %struct.zend_type, ptr %22, i64 %27
  store ptr %28, ptr %8, align 8, !tbaa !69
  br label %29

29:                                               ; preds = %42, %17
  %30 = load ptr, ptr %7, align 8, !tbaa !69
  %31 = load ptr, ptr %8, align 8, !tbaa !69
  %32 = icmp ult ptr %30, %31
  br i1 %32, label %33, label %45

33:                                               ; preds = %29
  %34 = load ptr, ptr %7, align 8, !tbaa !69
  store ptr %34, ptr %6, align 8, !tbaa !69
  %35 = load ptr, ptr %6, align 8, !tbaa !69
  %36 = load i8, ptr %5, align 1, !tbaa !64, !range !72, !noundef !73
  %37 = trunc i8 %36 to i1
  %38 = getelementptr inbounds nuw { ptr, i32 }, ptr %35, i32 0, i32 0
  %39 = load ptr, ptr %38, align 8
  %40 = getelementptr inbounds nuw { ptr, i32 }, ptr %35, i32 0, i32 1
  %41 = load i32, ptr %40, align 8
  call void @zend_type_release(ptr %39, i32 %41, i1 noundef zeroext %37)
  br label %42

42:                                               ; preds = %33
  %43 = load ptr, ptr %7, align 8, !tbaa !69
  %44 = getelementptr inbounds nuw %struct.zend_type, ptr %43, i32 1
  store ptr %44, ptr %7, align 8, !tbaa !69
  br label %29

45:                                               ; preds = %29
  call void @llvm.lifetime.end.p0(i64 8, ptr %8) #14
  call void @llvm.lifetime.end.p0(i64 8, ptr %7) #14
  br label %46

46:                                               ; preds = %45
  br label %47

47:                                               ; preds = %46
  %48 = getelementptr inbounds nuw %struct.zend_type, ptr %4, i32 0, i32 1
  %49 = load i32, ptr %48, align 8, !tbaa !66
  %50 = and i32 %49, 1048576
  %51 = icmp ne i32 %50, 0
  br i1 %51, label %62, label %52

52:                                               ; preds = %47
  %53 = load i8, ptr %5, align 1, !tbaa !64, !range !72, !noundef !73
  %54 = trunc i8 %53 to i1
  br i1 %54, label %55, label %58

55:                                               ; preds = %52
  %56 = getelementptr inbounds nuw %struct.zend_type, ptr %4, i32 0, i32 0
  %57 = load ptr, ptr %56, align 8, !tbaa !68
  call void @free(ptr noundef %57) #14
  br label %61

58:                                               ; preds = %52
  %59 = getelementptr inbounds nuw %struct.zend_type, ptr %4, i32 0, i32 0
  %60 = load ptr, ptr %59, align 8, !tbaa !68
  call void @_efree(ptr noundef %60)
  br label %61

61:                                               ; preds = %58, %55
  br label %62

62:                                               ; preds = %61, %47
  call void @llvm.lifetime.end.p0(i64 8, ptr %6) #14
  br label %72

63:                                               ; preds = %3
  %64 = getelementptr inbounds nuw %struct.zend_type, ptr %4, i32 0, i32 1
  %65 = load i32, ptr %64, align 8, !tbaa !66
  %66 = and i32 %65, 16777216
  %67 = icmp ne i32 %66, 0
  br i1 %67, label %68, label %71

68:                                               ; preds = %63
  %69 = getelementptr inbounds nuw %struct.zend_type, ptr %4, i32 0, i32 0
  %70 = load ptr, ptr %69, align 8, !tbaa !68
  call void @zend_string_release(ptr noundef %70)
  br label %71

71:                                               ; preds = %68, %63
  br label %72

72:                                               ; preds = %71, %62
  ret void
}