; Function Attrs: nounwind uwtable
define dso_local void @zend_type_release(ptr %0, i32 %1, i1 noundef zeroext %2) local_unnamed_addr #0 {
  %4 = and i32 %1, 4194304
  %.not = icmp eq i32 %4, 0
  br i1 %.not, label %17, label %5

5:                                                ; preds = %3
  %6 = load i32, ptr %0, align 8, !tbaa !48
  %7 = zext i32 %6 to i64
  %.idx = shl nuw nsw i64 %7, 4
  %.add = or disjoint i64 %.idx, 8
  %.ptr16 = getelementptr inbounds nuw i8, ptr %0, i64 %.add
  %.not17 = icmp eq i32 %6, 0
  br i1 %.not17, label %._crit_edge, label %.lr.ph.preheader

.lr.ph.preheader:                                 ; preds = %5
  %.ptr = getelementptr inbounds nuw i8, ptr %0, i64 8
  br label %.lr.ph

.lr.ph:                                           ; preds = %.lr.ph.preheader, %.lr.ph
  %.015 = phi ptr [ %11, %.lr.ph ], [ %.ptr, %.lr.ph.preheader ]
  %8 = load ptr, ptr %.015, align 8
  %9 = getelementptr inbounds nuw i8, ptr %.015, i64 8
  %10 = load i32, ptr %9, align 8
  tail call void @zend_type_release(ptr %8, i32 %10, i1 noundef zeroext %2)
  %11 = getelementptr inbounds nuw i8, ptr %.015, i64 16
  %12 = icmp ult ptr %11, %.ptr16
  br i1 %12, label %.lr.ph, label %._crit_edge

._crit_edge:                                      ; preds = %.lr.ph, %5
  %13 = and i32 %1, 1048576
  %.not14 = icmp eq i32 %13, 0
  br i1 %.not14, label %14, label %zend_string_release.exit

14:                                               ; preds = %._crit_edge
  br i1 %2, label %15, label %16

15:                                               ; preds = %14
  tail call void @free(ptr noundef %0) #14
  br label %zend_string_release.exit

16:                                               ; preds = %14
  tail call void @_efree(ptr noundef nonnull %0) #14
  br label %zend_string_release.exit

17:                                               ; preds = %3
  %18 = and i32 %1, 16777216
  %.not13 = icmp eq i32 %18, 0
  br i1 %.not13, label %zend_string_release.exit, label %19

19:                                               ; preds = %17
  %20 = getelementptr inbounds nuw i8, ptr %0, i64 4
  %21 = load i32, ptr %20, align 4, !tbaa !23
  %22 = and i32 %21, 64
  %.not.i = icmp eq i32 %22, 0
  br i1 %.not.i, label %23, label %zend_string_release.exit

23:                                               ; preds = %19
  %24 = load i32, ptr %0, align 4, !tbaa !32
  %25 = icmp ne i32 %24, 0
  tail call void @llvm.assume(i1 %25)
  %26 = add i32 %24, -1
  store i32 %26, ptr %0, align 4, !tbaa !32
  %27 = icmp eq i32 %26, 0
  br i1 %27, label %28, label %zend_string_release.exit

28:                                               ; preds = %23
  %29 = and i32 %21, 128
  %.not5.i = icmp eq i32 %29, 0
  br i1 %.not5.i, label %31, label %30

30:                                               ; preds = %28
  tail call void @free(ptr noundef nonnull %0) #14
  br label %zend_string_release.exit

31:                                               ; preds = %28
  tail call void @_efree(ptr noundef nonnull %0) #14
  br label %zend_string_release.exit

zend_string_release.exit:                         ; preds = %31, %30, %23, %19, %._crit_edge, %16, %15, %17
  ret void
}